target datalayout = "e-m:e-p270:32:32-p271:32:32-p272:64:64-i64:64-i128:128-f80:128-n8:16:32:64-S128"
target triple = "x86_64-pc-linux-gnu"

%"struct.vcpkg::StringView" = type { ptr, i64 }
%"struct.vcpkg::Json::Value" = type { %"class.std::unique_ptr" }
%"class.std::unique_ptr" = type { %"struct.std::__uniq_ptr_data" }
%"struct.std::__uniq_ptr_data" = type { %"class.std::__uniq_ptr_impl" }
%"class.std::__uniq_ptr_impl" = type { %"class.std::tuple" }
%"class.std::tuple" = type { %"struct.std::_Tuple_impl" }
%"struct.std::_Tuple_impl" = type { %"struct.std::_Head_base.1" }
%"struct.std::_Head_base.1" = type { ptr }
%"class.std::__cxx11::basic_string" = type { %"struct.std::__cxx11::basic_string<char>::_Alloc_hider", i64, %union.anon.2 }
%"struct.std::__cxx11::basic_string<char>::_Alloc_hider" = type { ptr }
%union.anon.2 = type { i64, [8 x i8] }
%"struct.vcpkg::LineInfo" = type { i32, ptr }
%"struct.vcpkg::LocalizedString" = type { %"class.std::__cxx11::basic_string" }
%"struct.vcpkg::ExpectedT" = type <{ %union.anon.33, i8, [7 x i8] }>
%union.anon.33 = type { %"struct.vcpkg::LocalizedString" }
%"class.std::initializer_list" = type { ptr, i64 }
%"class.std::error_code" = type { i32, ptr }
%"struct.vcpkg::Json::ParsedJson" = type { %"struct.vcpkg::Json::Value", %"struct.vcpkg::Json::JsonStyle" }
%"struct.vcpkg::Json::JsonStyle" = type { i32, i64 }
%"struct.vcpkg::ExpectedHolder" = type { %"struct.vcpkg::Json::ParsedJson" }

@.str = private unnamed_addr constant [118 x i8] c"generated/home/dtcxzyw/WorkSpace/Projects/compilers/llvm-opt-benchmark/bench/vcpkg/vcpkg-tool/src/vcpkg/base/json.cpp\00", align 1
@.str.13 = private unnamed_addr constant [14 x i8] c"read_contents\00", align 1
@_ZN5vcpkg4Json5ValueC1EOS1_ = dso_local unnamed_addr alias void (ptr, ptr), ptr @_ZN5vcpkg4Json5ValueC2EOS1_

; Function Attrs: mustprogress nounwind uwtable
define linkonce_odr dso_local noundef ptr @_ZN5vcpkg14ExpectedHolderINS_4Json10ParsedJsonEE3getEv(ptr noundef nonnull align 8 dereferenceable(24) %0) #0 comdat align 2 {
  %2 = alloca ptr, align 8
  store ptr %0, ptr %2, align 8
  %3 = load ptr, ptr %2, align 8
  %4 = getelementptr inbounds %"struct.vcpkg::ExpectedHolder", ptr %3, i32 0, i32 0
  ret ptr %4
}

; Function Attrs: mustprogress nounwind uwtable
define linkonce_odr dso_local void @_ZNK5vcpkg9ExpectedTINS_4Json10ParsedJsonENS_15LocalizedStringEE13exit_if_errorERKNS_8LineInfoE(ptr noundef nonnull align 8 dereferenceable(33) %0, ptr noundef nonnull align 8 dereferenceable(16) %1) #0 comdat align 2 personality ptr @__gxx_personality_v0 {
  %3 = alloca ptr, align 8
  %4 = alloca ptr, align 8
  store ptr %0, ptr %3, align 8
  store ptr %1, ptr %4, align 8
  %5 = load ptr, ptr %3, align 8
  %6 = getelementptr inbounds %"struct.vcpkg::ExpectedT", ptr %5, i32 0, i32 1
  %7 = load i8, ptr %6, align 8
  %8 = trunc i8 %7 to i1
  br i1 %8, label %9, label %13

9:                                                ; preds = %2
  %10 = load ptr, ptr %4, align 8
  %11 = call noundef nonnull align 8 dereferenceable(32) ptr @_ZNKR5vcpkg9ExpectedTINS_4Json10ParsedJsonENS_15LocalizedStringEE5errorEv(ptr noundef nonnull align 8 dereferenceable(33) %5) #9
  invoke void @_ZN5vcpkg6Checks21msg_exit_with_messageERKNS_8LineInfoERKNS_15LocalizedStringE(ptr noundef nonnull align 8 dereferenceable(16) %10, ptr noundef nonnull align 8 dereferenceable(32) %11) #20
          to label %12 unwind label %14

12:                                               ; preds = %9
  unreachable

13:                                               ; preds = %2
  ret void

14:                                               ; preds = %9
  %15 = landingpad { ptr, i32 }
          catch ptr null
  %16 = extractvalue { ptr, i32 } %15, 0
  call void @__clang_call_terminate(ptr %16) #19
  unreachable
}

; Function Attrs: mustprogress nounwind uwtable
define linkonce_odr dso_local void @_ZN5vcpkg4Json10ParsedJsonC2EOS1_(ptr noundef nonnull align 8 dereferenceable(24) %0, ptr noundef nonnull align 8 dereferenceable(24) %1) unnamed_addr #0 comdat align 2 {
  %3 = alloca ptr, align 8
  %4 = alloca ptr, align 8
  store ptr %0, ptr %3, align 8
  store ptr %1, ptr %4, align 8
  %5 = load ptr, ptr %3, align 8
  %6 = getelementptr inbounds %"struct.vcpkg::Json::ParsedJson", ptr %5, i32 0, i32 0
  %7 = load ptr, ptr %4, align 8
  %8 = getelementptr inbounds %"struct.vcpkg::Json::ParsedJson", ptr %7, i32 0, i32 0
  call void @_ZN5vcpkg4Json5ValueC1EOS1_(ptr noundef nonnull align 8 dereferenceable(8) %6, ptr noundef nonnull align 8 dereferenceable(8) %8) #9
  %9 = getelementptr inbounds %"struct.vcpkg::Json::ParsedJson", ptr %5, i32 0, i32 1
  %10 = load ptr, ptr %4, align 8
  %11 = getelementptr inbounds %"struct.vcpkg::Json::ParsedJson", ptr %10, i32 0, i32 1
  call void @llvm.memcpy.p0.p0.i64(ptr align 8 %9, ptr align 8 %11, i64 16, i1 false)
  ret void
}

; Function Attrs: mustprogress nounwind uwtable
define linkonce_odr dso_local noundef nonnull align 8 dereferenceable(24) ptr @_ZNO5vcpkg9ExpectedTINS_4Json10ParsedJsonENS_15LocalizedStringEE13value_or_exitERKNS_8LineInfoE(ptr noundef nonnull align 8 dereferenceable(33) %0, ptr noundef nonnull align 8 dereferenceable(16) %1) #0 comdat align 2 {
  %3 = alloca ptr, align 8
  %4 = alloca ptr, align 8
  store ptr %0, ptr %3, align 8
  store ptr %1, ptr %4, align 8
  %5 = load ptr, ptr %3, align 8
  %6 = load ptr, ptr %4, align 8
  call void @_ZNK5vcpkg9ExpectedTINS_4Json10ParsedJsonENS_15LocalizedStringEE13exit_if_errorERKNS_8LineInfoE(ptr noundef nonnull align 8 dereferenceable(33) %5, ptr noundef nonnull align 8 dereferenceable(16) %6) #9
  %7 = getelementptr inbounds %"struct.vcpkg::ExpectedT", ptr %5, i32 0, i32 0
  %8 = call noundef ptr @_ZN5vcpkg14ExpectedHolderINS_4Json10ParsedJsonEE3getEv(ptr noundef nonnull align 8 dereferenceable(24) %7) #9
  ret ptr %8
}

; Function Attrs: mustprogress nounwind uwtable
define linkonce_odr dso_local void @_ZN5vcpkg15LocalizedStringD2Ev(ptr noundef nonnull align 8 dereferenceable(32) %0) unnamed_addr #0 comdat align 2 {
  %2 = alloca ptr, align 8
  store ptr %0, ptr %2, align 8
  %3 = load ptr, ptr %2, align 8
  %4 = getelementptr inbounds %"struct.vcpkg::LocalizedString", ptr %3, i32 0, i32 0
  call void @_ZNSt7__cxx1112basic_stringIcSt11char_traitsIcESaIcEED1Ev(ptr noundef nonnull align 8 dereferenceable(32) %4) #9
  ret void
}

; Function Attrs: mustprogress nounwind uwtable
define linkonce_odr dso_local void @_ZN5vcpkg10StringViewC2EPKc(ptr noundef nonnull align 8 dereferenceable(16) %0, ptr noundef %1) unnamed_addr #0 comdat align 2 {
  %3 = alloca ptr, align 8
  %4 = alloca ptr, align 8
  store ptr %0, ptr %3, align 8
  store ptr %1, ptr %4, align 8
  %5 = load ptr, ptr %3, align 8
  %6 = getelementptr inbounds %"struct.vcpkg::StringView", ptr %5, i32 0, i32 0
  %7 = load ptr, ptr %4, align 8
  store ptr %7, ptr %6, align 8
  %8 = getelementptr inbounds %"struct.vcpkg::StringView", ptr %5, i32 0, i32 1
  %9 = load ptr, ptr %4, align 8
  %10 = call i64 @strlen(ptr noundef %9) #23
  store i64 %10, ptr %8, align 8
  ret void
}

; Function Attrs: mustprogress nounwind uwtable
define linkonce_odr dso_local noundef zeroext i1 @_ZNKSt10error_codecvbEv(ptr noundef nonnull align 8 dereferenceable(16) %0) #0 comdat align 2 {
  %2 = alloca ptr, align 8
  store ptr %0, ptr %2, align 8
  %3 = load ptr, ptr %2, align 8
  %4 = getelementptr inbounds %"class.std::error_code", ptr %3, i32 0, i32 0
  %5 = load i32, ptr %4, align 8
  %6 = icmp ne i32 %5, 0
  ret i1 %6
}

; Function Attrs: mustprogress nounwind uwtable
define linkonce_odr dso_local void @_ZNSt10error_codeC2Ev(ptr noundef nonnull align 8 dereferenceable(16) %0) unnamed_addr #0 comdat align 2 {
  %2 = alloca ptr, align 8
  store ptr %0, ptr %2, align 8
  %3 = load ptr, ptr %2, align 8
  %4 = getelementptr inbounds %"class.std::error_code", ptr %3, i32 0, i32 0
  store i32 0, ptr %4, align 8
  %5 = getelementptr inbounds %"class.std::error_code", ptr %3, i32 0, i32 1
  %6 = call noundef nonnull align 8 dereferenceable(8) ptr @_ZNSt3_V215system_categoryEv() #24
  store ptr %6, ptr %5, align 8
  ret void
}

; Function Attrs: mustprogress uwtable
define dso_local void @_ZN5vcpkg4Json10parse_fileENS_8LineInfoERKNS_18ReadOnlyFilesystemERKNS_4PathE(ptr dead_on_unwind noalias writable sret(%"struct.vcpkg::Json::ParsedJson") align 8 %0, i32 %1, ptr %2, ptr noundef nonnull align 8 dereferenceable(8) %3, ptr noundef nonnull align 8 dereferenceable(32) %4) #4 personality ptr @__gxx_personality_v0 {
  %6 = alloca ptr, align 8
  %7 = alloca %"struct.vcpkg::LineInfo", align 8
  %8 = alloca ptr, align 8
  %9 = alloca ptr, align 8
  %10 = alloca %"class.std::error_code", align 8
  %11 = alloca %"struct.vcpkg::ExpectedT", align 8
  %12 = alloca %"struct.vcpkg::LocalizedString", align 8
  %13 = alloca %"struct.vcpkg::StringView", align 8
  %14 = alloca %"class.std::initializer_list", align 8
  %15 = alloca [1 x %"struct.vcpkg::StringView"], align 8
  %16 = alloca ptr, align 8
  %17 = alloca i32, align 4
  %18 = alloca %"struct.vcpkg::LineInfo", align 8
  store ptr %0, ptr %6, align 8
  %19 = getelementptr inbounds { i32, ptr }, ptr %7, i32 0, i32 0
  store i32 %1, ptr %19, align 8
  %20 = getelementptr inbounds { i32, ptr }, ptr %7, i32 0, i32 1
  store ptr %2, ptr %20, align 8
  store ptr %3, ptr %8, align 8
  store ptr %4, ptr %9, align 8
  call void @_ZNSt10error_codeC2Ev(ptr noundef nonnull align 8 dereferenceable(16) %10) #9
  %21 = load ptr, ptr %8, align 8
  %22 = load ptr, ptr %9, align 8
  call void @_ZN5vcpkg4Json10parse_fileERKNS_18ReadOnlyFilesystemERKNS_4PathERSt10error_code(ptr dead_on_unwind writable sret(%"struct.vcpkg::ExpectedT") align 8 %11, ptr noundef nonnull align 8 dereferenceable(8) %21, ptr noundef nonnull align 8 dereferenceable(32) %22, ptr noundef nonnull align 8 dereferenceable(16) %10)
  %23 = call noundef zeroext i1 @_ZNKSt10error_codecvbEv(ptr noundef nonnull align 8 dereferenceable(16) %10) #9
  br i1 %23, label %24, label %53

24:                                               ; preds = %5
  call void @_ZN5vcpkg10StringViewC2EPKc(ptr noundef nonnull align 8 dereferenceable(16) %13, ptr noundef @.str.13) #9
  %25 = getelementptr inbounds [1 x %"struct.vcpkg::StringView"], ptr %15, i64 0, i64 0
  %26 = load ptr, ptr %9, align 8
  %27 = call { ptr, i64 } @_ZNK5vcpkg4PathcvNS_10StringViewEEv(ptr noundef nonnull align 8 dereferenceable(32) %26) #9
  %28 = getelementptr inbounds { ptr, i64 }, ptr %25, i32 0, i32 0
  %29 = extractvalue { ptr, i64 } %27, 0
  store ptr %29, ptr %28, align 8
  %30 = getelementptr inbounds { ptr, i64 }, ptr %25, i32 0, i32 1
  %31 = extractvalue { ptr, i64 } %27, 1
  store i64 %31, ptr %30, align 8
  %32 = getelementptr inbounds %"class.std::initializer_list", ptr %14, i32 0, i32 0
  %33 = getelementptr inbounds [1 x %"struct.vcpkg::StringView"], ptr %15, i64 0, i64 0
  store ptr %33, ptr %32, align 8
  %34 = getelementptr inbounds %"class.std::initializer_list", ptr %14, i32 0, i32 1
  store i64 1, ptr %34, align 8
  %35 = getelementptr inbounds { ptr, i64 }, ptr %13, i32 0, i32 0
  %36 = load ptr, ptr %35, align 8
  %37 = getelementptr inbounds { ptr, i64 }, ptr %13, i32 0, i32 1
  %38 = load i64, ptr %37, align 8
  %39 = getelementptr inbounds { ptr, i64 }, ptr %14, i32 0, i32 0
  %40 = load ptr, ptr %39, align 8
  %41 = getelementptr inbounds { ptr, i64 }, ptr %14, i32 0, i32 1
  %42 = load i64, ptr %41, align 8
  invoke void @_ZN5vcpkg28format_filesystem_call_errorERKSt10error_codeNS_10StringViewESt16initializer_listIS3_E(ptr dead_on_unwind writable sret(%"struct.vcpkg::LocalizedString") align 8 %12, ptr noundef nonnull align 8 dereferenceable(16) %10, ptr %36, i64 %38, ptr %40, i64 %42)
          to label %43 unwind label %45

43:                                               ; preds = %24
  invoke void @_ZN5vcpkg6Checks19msg_exit_with_errorERKNS_8LineInfoERKNS_15LocalizedStringE(ptr noundef nonnull align 8 dereferenceable(16) %7, ptr noundef nonnull align 8 dereferenceable(32) %12) #20
          to label %44 unwind label %49

44:                                               ; preds = %43
  unreachable

45:                                               ; preds = %53, %24
  %46 = landingpad { ptr, i32 }
          cleanup
  %47 = extractvalue { ptr, i32 } %46, 0
  store ptr %47, ptr %16, align 8
  %48 = extractvalue { ptr, i32 } %46, 1
  store i32 %48, ptr %17, align 4
  br label %58

49:                                               ; preds = %43
  %50 = landingpad { ptr, i32 }
          cleanup
  %51 = extractvalue { ptr, i32 } %50, 0
  store ptr %51, ptr %16, align 8
  %52 = extractvalue { ptr, i32 } %50, 1
  store i32 %52, ptr %17, align 4
  call void @_ZN5vcpkg15LocalizedStringD2Ev(ptr noundef nonnull align 8 dereferenceable(32) %12) #9
  br label %58

53:                                               ; preds = %5
  %54 = getelementptr inbounds %"struct.vcpkg::LineInfo", ptr %18, i32 0, i32 0
  store i32 1121, ptr %54, align 8
  %55 = getelementptr inbounds %"struct.vcpkg::LineInfo", ptr %18, i32 0, i32 1
  store ptr @.str, ptr %55, align 8
  %56 = invoke noundef nonnull align 8 dereferenceable(24) ptr @_ZNO5vcpkg9ExpectedTINS_4Json10ParsedJsonENS_15LocalizedStringEE13value_or_exitERKNS_8LineInfoE(ptr noundef nonnull align 8 dereferenceable(33) %11, ptr noundef nonnull align 8 dereferenceable(16) %18)
          to label %57 unwind label %45

57:                                               ; preds = %53
  call void @_ZN5vcpkg4Json10ParsedJsonC2EOS1_(ptr noundef nonnull align 8 dereferenceable(24) %0, ptr noundef nonnull align 8 dereferenceable(24) %56) #9
  call void @_ZN5vcpkg9ExpectedTINS_4Json10ParsedJsonENS_15LocalizedStringEED2Ev(ptr noundef nonnull align 8 dereferenceable(33) %11) #9
  ret void

58:                                               ; preds = %49, %45
  call void @_ZN5vcpkg9ExpectedTINS_4Json10ParsedJsonENS_15LocalizedStringEED2Ev(ptr noundef nonnull align 8 dereferenceable(33) %11) #9
  br label %59

59:                                               ; preds = %58
  %60 = load ptr, ptr %16, align 8
  %61 = load i32, ptr %17, align 4
  %62 = insertvalue { ptr, i32 } poison, ptr %60, 0
  %63 = insertvalue { ptr, i32 } %62, i32 %61, 1
  resume { ptr, i32 } %63
}