; Function Attrs: mustprogress uwtable
define dso_local void @_ZN5vcpkg4Json10parse_fileENS_8LineInfoERKNS_18ReadOnlyFilesystemERKNS_4PathE(ptr dead_on_unwind noalias nocapture writable writeonly sret(%"struct.vcpkg::Json::ParsedJson") align 8 %0, i32 %1, ptr %2, ptr noundef nonnull align 8 dereferenceable(8) %3, ptr noundef nonnull align 8 dereferenceable(32) %4) local_unnamed_addr #8 personality ptr @__gxx_personality_v0 {
  %6 = alloca %"struct.vcpkg::LineInfo", align 8
  %7 = alloca %"class.std::error_code", align 8
  %8 = alloca %"struct.vcpkg::ExpectedT", align 8
  %9 = alloca %"struct.vcpkg::LocalizedString", align 8
  %10 = alloca [1 x %"struct.vcpkg::StringView"], align 8
  %11 = alloca %"struct.vcpkg::LineInfo", align 8
  store i32 %1, ptr %6, align 8
  %12 = getelementptr inbounds i8, ptr %6, i64 8
  store ptr %2, ptr %12, align 8
  store i32 0, ptr %7, align 8
  %13 = getelementptr inbounds i8, ptr %7, i64 8
  %14 = tail call noundef nonnull align 8 dereferenceable(8) ptr @_ZNSt3_V215system_categoryEv() #32
  store ptr %14, ptr %13, align 8
  call void @_ZN5vcpkg4Json10parse_fileERKNS_18ReadOnlyFilesystemERKNS_4PathERSt10error_code(ptr dead_on_unwind nonnull writable sret(%"struct.vcpkg::ExpectedT") align 8 %8, ptr noundef nonnull align 8 dereferenceable(8) %3, ptr noundef nonnull align 8 dereferenceable(32) %4, ptr noundef nonnull align 8 dereferenceable(16) %7)
  %15 = load i32, ptr %7, align 8
  %.not = icmp eq i32 %15, 0
  br i1 %.not, label %27, label %16

16:                                               ; preds = %5
  %17 = call { ptr, i64 } @_ZNK5vcpkg4PathcvNS_10StringViewEEv(ptr noundef nonnull align 8 dereferenceable(32) %4) #26
  %18 = extractvalue { ptr, i64 } %17, 0
  store ptr %18, ptr %10, align 8
  %19 = getelementptr inbounds i8, ptr %10, i64 8
  %20 = extractvalue { ptr, i64 } %17, 1
  store i64 %20, ptr %19, align 8
  invoke void @_ZN5vcpkg28format_filesystem_call_errorERKSt10error_codeNS_10StringViewESt16initializer_listIS3_E(ptr dead_on_unwind nonnull writable sret(%"struct.vcpkg::LocalizedString") align 8 %9, ptr noundef nonnull align 8 dereferenceable(16) %7, ptr nonnull @.str.13, i64 13, ptr nonnull %10, i64 1)
          to label %21 unwind label %23

21:                                               ; preds = %16
  invoke void @_ZN5vcpkg6Checks19msg_exit_with_errorERKNS_8LineInfoERKNS_15LocalizedStringE(ptr noundef nonnull align 8 dereferenceable(16) %6, ptr noundef nonnull align 8 dereferenceable(32) %9) #27
          to label %22 unwind label %25

22:                                               ; preds = %21
  unreachable

23:                                               ; preds = %16
  %24 = landingpad { ptr, i32 }
          cleanup
  br label %41

25:                                               ; preds = %21
  %26 = landingpad { ptr, i32 }
          cleanup
  call void @_ZNSt7__cxx1112basic_stringIcSt11char_traitsIcESaIcEED1Ev(ptr noundef nonnull align 8 dereferenceable(32) %9) #26
  br label %41

27:                                               ; preds = %5
  store i32 1121, ptr %11, align 8
  %28 = getelementptr inbounds i8, ptr %11, i64 8
  store ptr @.str, ptr %28, align 8
  %29 = getelementptr inbounds i8, ptr %8, i64 32
  %30 = load i8, ptr %29, align 8
  %31 = and i8 %30, 1
  %.not.i.i = icmp eq i8 %31, 0
  br i1 %.not.i.i, label %_ZN5vcpkg9ExpectedTINS_4Json10ParsedJsonENS_15LocalizedStringEED2Ev.exit, label %32

32:                                               ; preds = %27
  %33 = call noundef nonnull align 8 dereferenceable(32) ptr @_ZNKR5vcpkg9ExpectedTINS_4Json10ParsedJsonENS_15LocalizedStringEE5errorEv(ptr noundef nonnull align 8 dereferenceable(33) %8) #26
  invoke void @_ZN5vcpkg6Checks21msg_exit_with_messageERKNS_8LineInfoERKNS_15LocalizedStringE(ptr noundef nonnull align 8 dereferenceable(16) %11, ptr noundef nonnull align 8 dereferenceable(32) %33) #27
          to label %34 unwind label %35

34:                                               ; preds = %32
  unreachable

35:                                               ; preds = %32
  %36 = landingpad { ptr, i32 }
          catch ptr null
  %37 = extractvalue { ptr, i32 } %36, 0
  call void @__clang_call_terminate(ptr %37) #25
  unreachable

_ZN5vcpkg9ExpectedTINS_4Json10ParsedJsonENS_15LocalizedStringEED2Ev.exit: ; preds = %27
  %38 = load i64, ptr %8, align 8
  store i64 %38, ptr %0, align 8
  %39 = getelementptr inbounds i8, ptr %0, i64 8
  %40 = getelementptr inbounds i8, ptr %8, i64 8
  call void @llvm.memcpy.p0.p0.i64(ptr noundef nonnull align 8 dereferenceable(16) %39, ptr noundef nonnull align 8 dereferenceable(16) %40, i64 16, i1 false)
  ret void

41:                                               ; preds = %25, %23
  %.pn = phi { ptr, i32 } [ %26, %25 ], [ %24, %23 ]
  call void @_ZN5vcpkg9ExpectedTINS_4Json10ParsedJsonENS_15LocalizedStringEED2Ev(ptr noundef nonnull align 8 dereferenceable(33) %8) #26
  resume { ptr, i32 } %.pn
}